target datalayout = "e-m:e-p270:32:32-p271:32:32-p272:64:64-i64:64-i128:128-f80:128-n8:16:32:64-S128"
target triple = "x86_64-pc-linux-gnu"

%struct.H5O_loc_t = type { ptr, i64, i8 }
%struct.H5D_t = type { %struct.H5O_loc_t, %struct.H5G_name_t, ptr }
%struct.H5G_name_t = type { ptr, ptr, i32 }

@.str.2 = private unnamed_addr constant [99 x i8] c"generated/home/dtcxzyw/WorkSpace/Projects/compilers/llvm-opt-benchmark/bench/hdf5/hdf5/src/H5Doh.c\00", align 1
@H5E_DATASET_g = external global i64, align 8
@H5E_CANTGET_g = external global i64, align 8
@__func__.H5O__dset_flush = private unnamed_addr constant [16 x i8] c"H5O__dset_flush\00", align 1
@.str.22 = private unnamed_addr constant [22 x i8] c"can't get object type\00", align 1
@H5E_BADTYPE_g = external global i64, align 8
@.str.23 = private unnamed_addr constant [14 x i8] c"not a dataset\00", align 1
@H5E_WRITEERROR_g = external global i64, align 8
@.str.24 = private unnamed_addr constant [36 x i8] c"unable to flush cached dataset info\00", align 1

; Function Attrs: nounwind uwtable
define internal i32 @H5O__dset_flush(ptr noundef %0) #0 {
  %2 = alloca ptr, align 8
  %3 = alloca ptr, align 8
  %4 = alloca i32, align 4
  %5 = alloca i32, align 4
  %6 = alloca i8, align 1
  store ptr %0, ptr %2, align 8
  %7 = load ptr, ptr %2, align 8
  store ptr %7, ptr %3, align 8
  store i32 0, ptr %5, align 4
  store i8 0, ptr %6, align 1
  %8 = load ptr, ptr %3, align 8
  %9 = getelementptr inbounds %struct.H5D_t, ptr %8, i32 0, i32 0
  %10 = call i32 @H5O_obj_type(ptr noundef %9, ptr noundef %4)
  %11 = icmp slt i32 %10, 0
  br i1 %11, label %12, label %27

12:                                               ; preds = %1
  br label %13

13:                                               ; preds = %12
  br label %14

14:                                               ; preds = %13
  br label %15

15:                                               ; preds = %14
  %16 = load i64, ptr @H5E_DATASET_g, align 8
  %17 = load i64, ptr @H5E_CANTGET_g, align 8
  %18 = call i32 (ptr, ptr, i32, i64, i64, ptr, ...) @H5E_printf_stack(ptr noundef @.str.2, ptr noundef @__func__.H5O__dset_flush, i32 noundef 427, i64 noundef %16, i64 noundef %17, ptr noundef @.str.22)
  br label %19

19:                                               ; preds = %15
  store i8 1, ptr %6, align 1
  %20 = load i8, ptr %6, align 1
  %21 = trunc i8 %20 to i1
  %22 = zext i1 %21 to i8
  store i8 %22, ptr %6, align 1
  br label %23

23:                                               ; preds = %19
  br label %24

24:                                               ; preds = %23
  store i32 -1, ptr %5, align 4
  br label %63

25:                                               ; No predecessors!
  br label %26

26:                                               ; preds = %25
  br label %27

27:                                               ; preds = %26, %1
  %28 = load i32, ptr %4, align 4
  %29 = icmp ne i32 %28, 1
  br i1 %29, label %30, label %45

30:                                               ; preds = %27
  br label %31

31:                                               ; preds = %30
  br label %32

32:                                               ; preds = %31
  br label %33

33:                                               ; preds = %32
  %34 = load i64, ptr @H5E_DATASET_g, align 8
  %35 = load i64, ptr @H5E_BADTYPE_g, align 8
  %36 = call i32 (ptr, ptr, i32, i64, i64, ptr, ...) @H5E_printf_stack(ptr noundef @.str.2, ptr noundef @__func__.H5O__dset_flush, i32 noundef 429, i64 noundef %34, i64 noundef %35, ptr noundef @.str.23)
  br label %37

37:                                               ; preds = %33
  store i8 1, ptr %6, align 1
  %38 = load i8, ptr %6, align 1
  %39 = trunc i8 %38 to i1
  %40 = zext i1 %39 to i8
  store i8 %40, ptr %6, align 1
  br label %41

41:                                               ; preds = %37
  br label %42

42:                                               ; preds = %41
  store i32 -1, ptr %5, align 4
  br label %63

43:                                               ; No predecessors!
  br label %44

44:                                               ; preds = %43
  br label %45

45:                                               ; preds = %44, %27
  %46 = load ptr, ptr %3, align 8
  %47 = call i32 @H5D__flush_real(ptr noundef %46)
  %48 = icmp slt i32 %47, 0
  br i1 %48, label %49, label %62

49:                                               ; preds = %45
  br label %50

50:                                               ; preds = %49
  br label %51

51:                                               ; preds = %50
  br label %52

52:                                               ; preds = %51
  %53 = load i64, ptr @H5E_DATASET_g, align 8
  %54 = load i64, ptr @H5E_WRITEERROR_g, align 8
  %55 = call i32 (ptr, ptr, i32, i64, i64, ptr, ...) @H5E_printf_stack(ptr noundef @.str.2, ptr noundef @__func__.H5O__dset_flush, i32 noundef 432, i64 noundef %53, i64 noundef %54, ptr noundef @.str.24)
  br label %56

56:                                               ; preds = %52
  store i8 1, ptr %6, align 1
  %57 = load i8, ptr %6, align 1
  %58 = trunc i8 %57 to i1
  %59 = zext i1 %58 to i8
  store i8 %59, ptr %6, align 1
  br label %60

60:                                               ; preds = %56
  store i32 -1, ptr %5, align 4
  br label %61

61:                                               ; preds = %60
  br label %62

62:                                               ; preds = %61, %45
  br label %63

63:                                               ; preds = %62, %42, %24
  %64 = load i32, ptr %5, align 4
  ret i32 %64
}