; Function Attrs: nounwind uwtable
define internal range(i32 -1, 1) i32 @H5O__dset_flush(ptr noundef %0) #0 {
  %2 = alloca i32, align 4
  %3 = call i32 @H5O_obj_type(ptr noundef %0, ptr noundef nonnull %2) #3
  %4 = icmp slt i32 %3, 0
  br i1 %4, label %5, label %9

5:                                                ; preds = %1
  %6 = load i64, ptr @H5E_DATASET_g, align 8
  %7 = load i64, ptr @H5E_CANTGET_g, align 8
  %8 = call i32 (ptr, ptr, i32, i64, i64, ptr, ...) @H5E_printf_stack(ptr noundef nonnull @.str.2, ptr noundef nonnull @__func__.H5O__dset_flush, i32 noundef 427, i64 noundef %6, i64 noundef %7, ptr noundef nonnull @.str.22) #3
  br label %22

9:                                                ; preds = %1
  %10 = load i32, ptr %2, align 4
  %.not = icmp eq i32 %10, 1
  br i1 %.not, label %15, label %11

11:                                               ; preds = %9
  %12 = load i64, ptr @H5E_DATASET_g, align 8
  %13 = load i64, ptr @H5E_BADTYPE_g, align 8
  %14 = call i32 (ptr, ptr, i32, i64, i64, ptr, ...) @H5E_printf_stack(ptr noundef nonnull @.str.2, ptr noundef nonnull @__func__.H5O__dset_flush, i32 noundef 429, i64 noundef %12, i64 noundef %13, ptr noundef nonnull @.str.23) #3
  br label %22

15:                                               ; preds = %9
  %16 = call i32 @H5D__flush_real(ptr noundef %0) #3
  %17 = icmp slt i32 %16, 0
  br i1 %17, label %18, label %22

18:                                               ; preds = %15
  %19 = load i64, ptr @H5E_DATASET_g, align 8
  %20 = load i64, ptr @H5E_WRITEERROR_g, align 8
  %21 = call i32 (ptr, ptr, i32, i64, i64, ptr, ...) @H5E_printf_stack(ptr noundef nonnull @.str.2, ptr noundef nonnull @__func__.H5O__dset_flush, i32 noundef 432, i64 noundef %19, i64 noundef %20, ptr noundef nonnull @.str.24) #3
  br label %22

22:                                               ; preds = %15, %18, %11, %5
  %.0 = phi i32 [ -1, %5 ], [ -1, %11 ], [ -1, %18 ], [ 0, %15 ]
  ret i32 %.0
}